target datalayout = "e-m:e-p270:32:32-p271:32:32-p272:64:64-i64:64-i128:128-f80:128-n8:16:32:64-S128"
target triple = "x86_64-pc-linux-gnu"

%struct.lconv = type { ptr, ptr, ptr, ptr, ptr, ptr, ptr, ptr, ptr, ptr, i8, i8, i8, i8, i8, i8, i8, i8, i8, i8, i8, i8, i8, i8 }

@.str.6 = private unnamed_addr constant [2 x i8] c".\00", align 1
@decimal_point = internal global ptr null, align 8
@groupdigits = internal global i32 0, align 4
@thousands_sep = internal global ptr null, align 8
@.str.26 = private unnamed_addr constant [2 x i8] c",\00", align 1

; Function Attrs: nounwind uwtable
define dso_local void @setDecimalLocale() #0 {
  %1 = alloca ptr, align 8
  call void @llvm.lifetime.start.p0(i64 8, ptr %1) #8
  %2 = call ptr @localeconv() #8
  store ptr %2, ptr %1, align 8
  %3 = load ptr, ptr %1, align 8
  %4 = getelementptr inbounds nuw %struct.lconv, ptr %3, i32 0, i32 0
  %5 = load ptr, ptr %4, align 8
  %6 = load i8, ptr %5, align 1
  %7 = icmp ne i8 %6, 0
  br i1 %7, label %8, label %13

8:                                                ; preds = %0
  %9 = load ptr, ptr %1, align 8
  %10 = getelementptr inbounds nuw %struct.lconv, ptr %9, i32 0, i32 0
  %11 = load ptr, ptr %10, align 8
  %12 = call ptr @pg_strdup(ptr noundef %11)
  store ptr %12, ptr @decimal_point, align 8
  br label %14

13:                                               ; preds = %0
  store ptr @.str.6, ptr @decimal_point, align 8
  br label %14

14:                                               ; preds = %13, %8
  %15 = load ptr, ptr %1, align 8
  %16 = getelementptr inbounds nuw %struct.lconv, ptr %15, i32 0, i32 2
  %17 = load ptr, ptr %16, align 8
  %18 = load i8, ptr %17, align 1
  %19 = sext i8 %18 to i32
  store i32 %19, ptr @groupdigits, align 4
  %20 = load i32, ptr @groupdigits, align 4
  %21 = icmp sle i32 %20, 0
  br i1 %21, label %25, label %22

22:                                               ; preds = %14
  %23 = load i32, ptr @groupdigits, align 4
  %24 = icmp sgt i32 %23, 6
  br i1 %24, label %25, label %26

25:                                               ; preds = %22, %14
  store i32 3, ptr @groupdigits, align 4
  br label %26

26:                                               ; preds = %25, %22
  %27 = load ptr, ptr %1, align 8
  %28 = getelementptr inbounds nuw %struct.lconv, ptr %27, i32 0, i32 1
  %29 = load ptr, ptr %28, align 8
  %30 = load i8, ptr %29, align 1
  %31 = icmp ne i8 %30, 0
  br i1 %31, label %32, label %37

32:                                               ; preds = %26
  %33 = load ptr, ptr %1, align 8
  %34 = getelementptr inbounds nuw %struct.lconv, ptr %33, i32 0, i32 1
  %35 = load ptr, ptr %34, align 8
  %36 = call ptr @pg_strdup(ptr noundef %35)
  store ptr %36, ptr @thousands_sep, align 8
  br label %44

37:                                               ; preds = %26
  %38 = load ptr, ptr @decimal_point, align 8
  %39 = call i32 @strcmp(ptr noundef %38, ptr noundef @.str.26) #9
  %40 = icmp ne i32 %39, 0
  br i1 %40, label %41, label %42

41:                                               ; preds = %37
  store ptr @.str.26, ptr @thousands_sep, align 8
  br label %43

42:                                               ; preds = %37
  store ptr @.str.6, ptr @thousands_sep, align 8
  br label %43

43:                                               ; preds = %42, %41
  br label %44

44:                                               ; preds = %43, %32
  call void @llvm.lifetime.end.p0(i64 8, ptr %1) #8
  ret void
}