; Function Attrs: nounwind uwtable
define dso_local void @setDecimalLocale() local_unnamed_addr #3 {
  %1 = tail call ptr @localeconv() #19
  %2 = load ptr, ptr %1, align 8
  %3 = load i8, ptr %2, align 1
  %.not = icmp eq i8 %3, 0
  br i1 %.not, label %6, label %4

4:                                                ; preds = %0
  %5 = tail call ptr @pg_strdup(ptr noundef nonnull %2) #19
  br label %6

6:                                                ; preds = %0, %4
  %storemerge = phi ptr [ %5, %4 ], [ @.str.6, %0 ]
  store ptr %storemerge, ptr @decimal_point, align 8
  %7 = getelementptr inbounds nuw i8, ptr %1, i64 16
  %8 = load ptr, ptr %7, align 8
  %9 = load i8, ptr %8, align 1
  %10 = add i8 %9, -7
  %or.cond = icmp ult i8 %10, -6
  %narrow = select i1 %or.cond, i8 3, i8 %9
  %spec.store.select = sext i8 %narrow to i32
  store i32 %spec.store.select, ptr @groupdigits, align 4
  %11 = getelementptr inbounds nuw i8, ptr %1, i64 8
  %12 = load ptr, ptr %11, align 8
  %13 = load i8, ptr %12, align 1
  %.not6 = icmp eq i8 %13, 0
  br i1 %.not6, label %sub_0, label %14

14:                                               ; preds = %6
  %15 = tail call ptr @pg_strdup(ptr noundef nonnull %12) #19
  br label %.tail.thread

sub_0:                                            ; preds = %6
  %16 = load i8, ptr %storemerge, align 1
  %.not8 = icmp eq i8 %16, 44
  br i1 %.not8, label %.tail, label %.tail.thread

.tail:                                            ; preds = %sub_0
  %17 = getelementptr inbounds nuw i8, ptr %storemerge, i64 1
  %18 = load i8, ptr %17, align 1
  %19 = icmp eq i8 %18, 0
  %spec.select = select i1 %19, ptr @.str.6, ptr @.str.26
  br label %.tail.thread

.tail.thread:                                     ; preds = %.tail, %sub_0, %14
  %.str.26.sink = phi ptr [ %15, %14 ], [ @.str.26, %sub_0 ], [ %spec.select, %.tail ]
  store ptr %.str.26.sink, ptr @thousands_sep, align 8
  ret void
}